target datalayout = "e-m:e-p270:32:32-p271:32:32-p272:64:64-i64:64-i128:128-f80:128-n8:16:32:64-S128"
target triple = "x86_64-pc-linux-gnu"

%"class.cv::_InputArray" = type { i32, ptr, %"class.cv::Size_" }
%"class.cv::Size_" = type { i32, i32 }
%"class.cv::Mat" = type { i32, i32, i32, i32, ptr, ptr, ptr, ptr, ptr, ptr, %"struct.cv::MatSize", %"struct.cv::MatStep" }
%"struct.cv::MatSize" = type { ptr }
%"struct.cv::MatStep" = type { ptr, [2 x i64] }
%"class.cv::_OutputArray" = type { %"class.cv::_InputArray" }
%"class.cv::TermCriteria" = type { i32, i32, double }

; Function Attrs: inlinehint mustprogress nounwind uwtable
define linkonce_odr hidden void @_ZN2cv5Size_IiEC2Ev(ptr noundef nonnull align 4 dereferenceable(8) %0) unnamed_addr #7 comdat align 2 {
  %2 = alloca ptr, align 8
  store ptr %0, ptr %2, align 8, !tbaa !75
  %3 = load ptr, ptr %2, align 8
  %4 = getelementptr inbounds nuw %"class.cv::Size_", ptr %3, i32 0, i32 0
  store i32 0, ptr %4, align 4, !tbaa !77
  %5 = getelementptr inbounds nuw %"class.cv::Size_", ptr %3, i32 0, i32 1
  store i32 0, ptr %5, align 4, !tbaa !78
  ret void
}

; Function Attrs: inlinehint mustprogress nounwind uwtable
define linkonce_odr hidden void @_ZN2cv11_InputArray4initEiPKv(ptr noundef nonnull align 8 dereferenceable(24) %0, i32 noundef %1, ptr noundef %2) #7 comdat align 2 {
  %4 = alloca ptr, align 8
  %5 = alloca i32, align 4
  %6 = alloca ptr, align 8
  store ptr %0, ptr %4, align 8, !tbaa !3
  store i32 %1, ptr %5, align 4, !tbaa !24
  store ptr %2, ptr %6, align 8, !tbaa !247
  %7 = load ptr, ptr %4, align 8
  %8 = load i32, ptr %5, align 4, !tbaa !24
  %9 = getelementptr inbounds nuw %"class.cv::_InputArray", ptr %7, i32 0, i32 0
  store i32 %8, ptr %9, align 8, !tbaa !248
  %10 = load ptr, ptr %6, align 8, !tbaa !247
  %11 = getelementptr inbounds nuw %"class.cv::_InputArray", ptr %7, i32 0, i32 1
  store ptr %10, ptr %11, align 8, !tbaa !59
  ret void
}

; Function Attrs: inlinehint mustprogress uwtable
define linkonce_odr hidden void @_ZN2cv11_InputArrayC2Ev(ptr noundef nonnull align 8 dereferenceable(24) %0) unnamed_addr #6 comdat align 2 {
  %2 = alloca ptr, align 8
  store ptr %0, ptr %2, align 8, !tbaa !3
  %3 = load ptr, ptr %2, align 8
  %4 = getelementptr inbounds nuw %"class.cv::_InputArray", ptr %3, i32 0, i32 2
  call void @_ZN2cv5Size_IiEC2Ev(ptr noundef nonnull align 4 dereferenceable(8) %4)
  call void @_ZN2cv11_InputArray4initEiPKv(ptr noundef nonnull align 8 dereferenceable(24) %3, i32 noundef 0, ptr noundef null)
  ret void
}

; Function Attrs: inlinehint mustprogress uwtable
define linkonce_odr hidden void @_ZN2cv11_InputArrayC2ERKNS_3MatE(ptr noundef nonnull align 8 dereferenceable(24) %0, ptr noundef nonnull align 8 dereferenceable(96) %1) unnamed_addr #6 comdat align 2 {
  %3 = alloca ptr, align 8
  %4 = alloca ptr, align 8
  store ptr %0, ptr %3, align 8, !tbaa !3
  store ptr %1, ptr %4, align 8, !tbaa !62
  %5 = load ptr, ptr %3, align 8
  %6 = getelementptr inbounds nuw %"class.cv::_InputArray", ptr %5, i32 0, i32 2
  call void @_ZN2cv5Size_IiEC2Ev(ptr noundef nonnull align 4 dereferenceable(8) %6)
  %7 = load ptr, ptr %4, align 8, !tbaa !62
  call void @_ZN2cv11_InputArray4initEiPKv(ptr noundef nonnull align 8 dereferenceable(24) %5, i32 noundef 16842752, ptr noundef %7)
  ret void
}

; Function Attrs: inlinehint mustprogress nounwind uwtable
define linkonce_odr hidden void @_ZN2cv11_InputArrayD2Ev(ptr noundef nonnull align 8 dereferenceable(24) %0) unnamed_addr #7 comdat align 2 {
  %2 = alloca ptr, align 8
  store ptr %0, ptr %2, align 8, !tbaa !3
  ret void
}

; Function Attrs: inlinehint mustprogress uwtable
define linkonce_odr hidden void @_ZN2cv12_OutputArrayC2ERNS_3MatE(ptr noundef nonnull align 8 dereferenceable(24) %0, ptr noundef nonnull align 8 dereferenceable(96) %1) unnamed_addr #6 comdat align 2 {
  %3 = alloca ptr, align 8
  %4 = alloca ptr, align 8
  store ptr %0, ptr %3, align 8, !tbaa !8
  store ptr %1, ptr %4, align 8, !tbaa !62
  %5 = load ptr, ptr %3, align 8
  call void @_ZN2cv11_InputArrayC2Ev(ptr noundef nonnull align 8 dereferenceable(24) %5)
  %6 = load ptr, ptr %4, align 8, !tbaa !62
  call void @_ZN2cv11_InputArray4initEiPKv(ptr noundef nonnull align 8 dereferenceable(24) %5, i32 noundef 33619968, ptr noundef %6)
  ret void
}

; Function Attrs: mustprogress uwtable
define noundef zeroext i1 @_ZN2cv7fisheye14solvePnPRansacERKNS_11_InputArrayES3_S3_S3_RKNS_12_OutputArrayES6_bifdS6_iNS_12TermCriteriaE(ptr noundef nonnull align 8 dereferenceable(24) %0, ptr noundef nonnull align 8 dereferenceable(24) %1, ptr noundef nonnull align 8 dereferenceable(24) %2, ptr noundef nonnull align 8 dereferenceable(24) %3, ptr noundef nonnull align 8 dereferenceable(24) %4, ptr noundef nonnull align 8 dereferenceable(24) %5, i1 noundef zeroext %6, i32 noundef %7, float noundef %8, double noundef %9, ptr noundef nonnull align 8 dereferenceable(24) %10, i32 noundef %11, ptr noundef byval(%"class.cv::TermCriteria") align 8 %12) #4 personality ptr @__gxx_personality_v0 {
  %14 = alloca ptr, align 8
  %15 = alloca ptr, align 8
  %16 = alloca ptr, align 8
  %17 = alloca ptr, align 8
  %18 = alloca ptr, align 8
  %19 = alloca ptr, align 8
  %20 = alloca i8, align 1
  %21 = alloca i32, align 4
  %22 = alloca float, align 4
  %23 = alloca double, align 8
  %24 = alloca ptr, align 8
  %25 = alloca i32, align 4
  %26 = alloca %"class.cv::Mat", align 8
  %27 = alloca %"class.cv::_OutputArray", align 8
  %28 = alloca ptr, align 8
  %29 = alloca i32, align 4
  %30 = alloca %"class.cv::TermCriteria", align 8
  %31 = alloca %"class.cv::_InputArray", align 8
  store ptr %0, ptr %14, align 8, !tbaa !3
  store ptr %1, ptr %15, align 8, !tbaa !3
  store ptr %2, ptr %16, align 8, !tbaa !3
  store ptr %3, ptr %17, align 8, !tbaa !3
  store ptr %4, ptr %18, align 8, !tbaa !8
  store ptr %5, ptr %19, align 8, !tbaa !8
  %32 = zext i1 %6 to i8
  store i8 %32, ptr %20, align 1, !tbaa !18
  store i32 %7, ptr %21, align 4, !tbaa !24
  store float %8, ptr %22, align 4, !tbaa !16
  store double %9, ptr %23, align 8, !tbaa !12
  store ptr %10, ptr %24, align 8, !tbaa !8
  store i32 %11, ptr %25, align 4, !tbaa !24
  call void @llvm.lifetime.start.p0(i64 96, ptr %26) #3
  call void @_ZN2cv3MatC1Ev(ptr noundef nonnull align 8 dereferenceable(96) %26) #3
  %33 = load ptr, ptr %15, align 8, !tbaa !3
  call void @llvm.lifetime.start.p0(i64 24, ptr %27) #3
  invoke void @_ZN2cv12_OutputArrayC2ERNS_3MatE(ptr noundef nonnull align 8 dereferenceable(24) %27, ptr noundef nonnull align 8 dereferenceable(96) %26)
          to label %34 unwind label %57

34:                                               ; preds = %13
  %35 = load ptr, ptr %16, align 8, !tbaa !3
  %36 = load ptr, ptr %17, align 8, !tbaa !3
  %37 = invoke noundef nonnull align 8 dereferenceable(24) ptr @_ZN2cv7noArrayEv()
          to label %38 unwind label %61

38:                                               ; preds = %34
  %39 = load ptr, ptr %16, align 8, !tbaa !3
  call void @llvm.memcpy.p0.p0.i64(ptr align 8 %30, ptr align 8 %12, i64 16, i1 false), !tbaa.struct !186
  invoke void @_ZN2cv7fisheye15undistortPointsERKNS_11_InputArrayERKNS_12_OutputArrayES3_S3_S3_S3_NS_12TermCriteriaE(ptr noundef nonnull align 8 dereferenceable(24) %33, ptr noundef nonnull align 8 dereferenceable(24) %27, ptr noundef nonnull align 8 dereferenceable(24) %35, ptr noundef nonnull align 8 dereferenceable(24) %36, ptr noundef nonnull align 8 dereferenceable(24) %37, ptr noundef nonnull align 8 dereferenceable(24) %39, ptr noundef byval(%"class.cv::TermCriteria") align 8 %30)
          to label %40 unwind label %61

40:                                               ; preds = %38
  call void @_ZN2cv11_InputArrayD2Ev(ptr noundef nonnull align 8 dereferenceable(24) %27) #3
  call void @llvm.lifetime.end.p0(i64 24, ptr %27) #3
  %41 = load ptr, ptr %14, align 8, !tbaa !3
  call void @llvm.lifetime.start.p0(i64 24, ptr %31) #3
  invoke void @_ZN2cv11_InputArrayC2ERKNS_3MatE(ptr noundef nonnull align 8 dereferenceable(24) %31, ptr noundef nonnull align 8 dereferenceable(96) %26)
          to label %42 unwind label %66

42:                                               ; preds = %40
  %43 = load ptr, ptr %16, align 8, !tbaa !3
  %44 = invoke noundef nonnull align 8 dereferenceable(24) ptr @_ZN2cv7noArrayEv()
          to label %45 unwind label %70

45:                                               ; preds = %42
  %46 = load ptr, ptr %18, align 8, !tbaa !8
  %47 = load ptr, ptr %19, align 8, !tbaa !8
  %48 = load i8, ptr %20, align 1, !tbaa !18, !range !22, !noundef !23
  %49 = trunc i8 %48 to i1
  %50 = load i32, ptr %21, align 4, !tbaa !24
  %51 = load float, ptr %22, align 4, !tbaa !16
  %52 = load double, ptr %23, align 8, !tbaa !12
  %53 = load ptr, ptr %24, align 8, !tbaa !8
  %54 = load i32, ptr %25, align 4, !tbaa !24
  %55 = invoke noundef zeroext i1 @_ZN2cv14solvePnPRansacERKNS_11_InputArrayES2_S2_S2_RKNS_12_OutputArrayES5_bifdS5_i(ptr noundef nonnull align 8 dereferenceable(24) %41, ptr noundef nonnull align 8 dereferenceable(24) %31, ptr noundef nonnull align 8 dereferenceable(24) %43, ptr noundef nonnull align 8 dereferenceable(24) %44, ptr noundef nonnull align 8 dereferenceable(24) %46, ptr noundef nonnull align 8 dereferenceable(24) %47, i1 noundef zeroext %49, i32 noundef %50, float noundef %51, double noundef %52, ptr noundef nonnull align 8 dereferenceable(24) %53, i32 noundef %54)
          to label %56 unwind label %70

56:                                               ; preds = %45
  call void @_ZN2cv11_InputArrayD2Ev(ptr noundef nonnull align 8 dereferenceable(24) %31) #3
  call void @llvm.lifetime.end.p0(i64 24, ptr %31) #3
  call void @_ZN2cv3MatD1Ev(ptr noundef nonnull align 8 dereferenceable(96) %26) #3
  call void @llvm.lifetime.end.p0(i64 96, ptr %26) #3
  ret i1 %55

57:                                               ; preds = %13
  %58 = landingpad { ptr, i32 }
          cleanup
  %59 = extractvalue { ptr, i32 } %58, 0
  store ptr %59, ptr %28, align 8
  %60 = extractvalue { ptr, i32 } %58, 1
  store i32 %60, ptr %29, align 4
  br label %65

61:                                               ; preds = %38, %34
  %62 = landingpad { ptr, i32 }
          cleanup
  %63 = extractvalue { ptr, i32 } %62, 0
  store ptr %63, ptr %28, align 8
  %64 = extractvalue { ptr, i32 } %62, 1
  store i32 %64, ptr %29, align 4
  call void @_ZN2cv11_InputArrayD2Ev(ptr noundef nonnull align 8 dereferenceable(24) %27) #3
  br label %65

65:                                               ; preds = %61, %57
  call void @llvm.lifetime.end.p0(i64 24, ptr %27) #3
  br label %75

66:                                               ; preds = %40
  %67 = landingpad { ptr, i32 }
          cleanup
  %68 = extractvalue { ptr, i32 } %67, 0
  store ptr %68, ptr %28, align 8
  %69 = extractvalue { ptr, i32 } %67, 1
  store i32 %69, ptr %29, align 4
  br label %74

70:                                               ; preds = %45, %42
  %71 = landingpad { ptr, i32 }
          cleanup
  %72 = extractvalue { ptr, i32 } %71, 0
  store ptr %72, ptr %28, align 8
  %73 = extractvalue { ptr, i32 } %71, 1
  store i32 %73, ptr %29, align 4
  call void @_ZN2cv11_InputArrayD2Ev(ptr noundef nonnull align 8 dereferenceable(24) %31) #3
  br label %74

74:                                               ; preds = %70, %66
  call void @llvm.lifetime.end.p0(i64 24, ptr %31) #3
  br label %75

75:                                               ; preds = %74, %65
  call void @_ZN2cv3MatD1Ev(ptr noundef nonnull align 8 dereferenceable(96) %26) #3
  call void @llvm.lifetime.end.p0(i64 96, ptr %26) #3
  br label %76

76:                                               ; preds = %75
  %77 = load ptr, ptr %28, align 8
  %78 = load i32, ptr %29, align 4
  %79 = insertvalue { ptr, i32 } poison, ptr %77, 0
  %80 = insertvalue { ptr, i32 } %79, i32 %78, 1
  resume { ptr, i32 } %80
}