; Function Attrs: mustprogress uwtable
define noundef zeroext i1 @_ZN2cv7fisheye14solvePnPRansacERKNS_11_InputArrayES3_S3_S3_RKNS_12_OutputArrayES6_bifdS6_iNS_12TermCriteriaE(ptr noundef nonnull align 8 dereferenceable(24) %0, ptr noundef nonnull align 8 dereferenceable(24) %1, ptr noundef nonnull align 8 dereferenceable(24) %2, ptr noundef nonnull align 8 dereferenceable(24) %3, ptr noundef nonnull align 8 dereferenceable(24) %4, ptr noundef nonnull align 8 dereferenceable(24) %5, i1 noundef zeroext %6, i32 noundef %7, float noundef %8, double noundef %9, ptr noundef nonnull align 8 dereferenceable(24) %10, i32 noundef %11, ptr noundef readonly byval(%"class.cv::TermCriteria") align 8 captures(none) %12) local_unnamed_addr #3 personality ptr @__gxx_personality_v0 {
  %14 = alloca %"class.cv::Mat", align 8
  %15 = alloca %"class.cv::_OutputArray", align 8
  %16 = alloca %"class.cv::_InputArray", align 8
  call void @llvm.lifetime.start.p0(i64 96, ptr nonnull %14) #23
  call void @_ZN2cv3MatC1Ev(ptr noundef nonnull align 8 dereferenceable(96) %14) #23
  call void @llvm.lifetime.start.p0(i64 24, ptr nonnull %15) #23
  %17 = getelementptr inbounds nuw i8, ptr %15, i64 8
  %18 = getelementptr inbounds nuw i8, ptr %15, i64 16
  store i64 0, ptr %18, align 8
  store i32 33619968, ptr %15, align 8, !tbaa !3
  store ptr %14, ptr %17, align 8, !tbaa !10
  %19 = invoke noundef nonnull align 8 dereferenceable(24) ptr @_ZN2cv7noArrayEv()
          to label %20 unwind label %29

20:                                               ; preds = %13
  invoke void @_ZN2cv7fisheye15undistortPointsERKNS_11_InputArrayERKNS_12_OutputArrayES3_S3_S3_S3_NS_12TermCriteriaE(ptr noundef nonnull align 8 dereferenceable(24) %1, ptr noundef nonnull align 8 dereferenceable(24) %15, ptr noundef nonnull align 8 dereferenceable(24) %2, ptr noundef nonnull align 8 dereferenceable(24) %3, ptr noundef nonnull align 8 dereferenceable(24) %19, ptr noundef nonnull align 8 dereferenceable(24) %2, ptr noundef nonnull byval(%"class.cv::TermCriteria") align 8 %12)
          to label %21 unwind label %29

21:                                               ; preds = %20
  call void @llvm.lifetime.end.p0(i64 24, ptr nonnull %15) #23
  call void @llvm.lifetime.start.p0(i64 24, ptr nonnull %16) #23
  %22 = getelementptr inbounds nuw i8, ptr %16, i64 16
  store i32 0, ptr %22, align 8, !tbaa !363
  %23 = getelementptr inbounds nuw i8, ptr %16, i64 20
  store i32 0, ptr %23, align 4, !tbaa !364
  store i32 16842752, ptr %16, align 8, !tbaa !3
  %24 = getelementptr inbounds nuw i8, ptr %16, i64 8
  store ptr %14, ptr %24, align 8, !tbaa !10
  %25 = invoke noundef nonnull align 8 dereferenceable(24) ptr @_ZN2cv7noArrayEv()
          to label %26 unwind label %31

26:                                               ; preds = %21
  %27 = invoke noundef zeroext i1 @_ZN2cv14solvePnPRansacERKNS_11_InputArrayES2_S2_S2_RKNS_12_OutputArrayES5_bifdS5_i(ptr noundef nonnull align 8 dereferenceable(24) %0, ptr noundef nonnull align 8 dereferenceable(24) %16, ptr noundef nonnull align 8 dereferenceable(24) %2, ptr noundef nonnull align 8 dereferenceable(24) %25, ptr noundef nonnull align 8 dereferenceable(24) %4, ptr noundef nonnull align 8 dereferenceable(24) %5, i1 noundef zeroext %6, i32 noundef %7, float noundef %8, double noundef %9, ptr noundef nonnull align 8 dereferenceable(24) %10, i32 noundef %11)
          to label %28 unwind label %31

28:                                               ; preds = %26
  call void @llvm.lifetime.end.p0(i64 24, ptr nonnull %16) #23
  call void @_ZN2cv3MatD1Ev(ptr noundef nonnull align 8 dereferenceable(96) %14) #23
  call void @llvm.lifetime.end.p0(i64 96, ptr nonnull %14) #23
  ret i1 %27

29:                                               ; preds = %20, %13
  %30 = landingpad { ptr, i32 }
          cleanup
  call void @llvm.lifetime.end.p0(i64 24, ptr nonnull %15) #23
  br label %33

31:                                               ; preds = %26, %21
  %32 = landingpad { ptr, i32 }
          cleanup
  call void @llvm.lifetime.end.p0(i64 24, ptr nonnull %16) #23
  br label %33

33:                                               ; preds = %31, %29
  %.pn19.pn = phi { ptr, i32 } [ %32, %31 ], [ %30, %29 ]
  call void @_ZN2cv3MatD1Ev(ptr noundef nonnull align 8 dereferenceable(96) %14) #23
  call void @llvm.lifetime.end.p0(i64 96, ptr nonnull %14) #23
  resume { ptr, i32 } %.pn19.pn
}